target datalayout = "e-m:e-p270:32:32-p271:32:32-p272:64:64-i64:64-i128:128-f80:128-n8:16:32:64-S128"
target triple = "x86_64-pc-linux-gnu"

%struct.b2Vec2 = type { float, float }
%struct.b2JointId = type { i32, i16, i16 }
%struct.b2JointSim = type { i32, i32, i32, i32, %struct.b2Vec2, %struct.b2Vec2, float, float, float, float, %union.anon }
%union.anon = type { %struct.b2PrismaticJoint }
%struct.b2PrismaticJoint = type { %struct.b2Vec2, %struct.b2Vec2, float, float, float, float, float, float, float, float, float, float, float, i32, i32, %struct.b2Vec2, %struct.b2Vec2, %struct.b2Vec2, %struct.b2Vec2, float, float, %struct.b2Softness, i8, i8, i8 }
%struct.b2Softness = type { float, float, float }
%struct.b2DistanceJoint = type { float, float, float, float, float, float, float, float, float, float, float, i32, i32, %struct.b2Vec2, %struct.b2Vec2, %struct.b2Vec2, %struct.b2Softness, float, i8, i8, i8 }

@b2_lengthUnitsPerMeter = external global float, align 4

; Function Attrs: inlinehint nounwind uwtable
define internal float @b2MaxFloat(float noundef %0, float noundef %1) #3 {
  %3 = alloca float, align 4
  %4 = alloca float, align 4
  store float %0, ptr %3, align 4, !tbaa !3
  store float %1, ptr %4, align 4, !tbaa !3
  %5 = load float, ptr %3, align 4, !tbaa !3
  %6 = load float, ptr %4, align 4, !tbaa !3
  %7 = fcmp ogt float %5, %6
  br i1 %7, label %8, label %10

8:                                                ; preds = %2
  %9 = load float, ptr %3, align 4, !tbaa !3
  br label %12

10:                                               ; preds = %2
  %11 = load float, ptr %4, align 4, !tbaa !3
  br label %12

12:                                               ; preds = %10, %8
  %13 = phi float [ %9, %8 ], [ %11, %10 ]
  ret float %13
}

; Function Attrs: inlinehint nounwind uwtable
define internal float @b2MinFloat(float noundef %0, float noundef %1) #3 {
  %3 = alloca float, align 4
  %4 = alloca float, align 4
  store float %0, ptr %3, align 4, !tbaa !3
  store float %1, ptr %4, align 4, !tbaa !3
  %5 = load float, ptr %3, align 4, !tbaa !3
  %6 = load float, ptr %4, align 4, !tbaa !3
  %7 = fcmp olt float %5, %6
  br i1 %7, label %8, label %10

8:                                                ; preds = %2
  %9 = load float, ptr %3, align 4, !tbaa !3
  br label %12

10:                                               ; preds = %2
  %11 = load float, ptr %4, align 4, !tbaa !3
  br label %12

12:                                               ; preds = %10, %8
  %13 = phi float [ %9, %8 ], [ %11, %10 ]
  ret float %13
}

; Function Attrs: inlinehint nounwind uwtable
define internal float @b2ClampFloat(float noundef %0, float noundef %1, float noundef %2) #3 {
  %4 = alloca float, align 4
  %5 = alloca float, align 4
  %6 = alloca float, align 4
  store float %0, ptr %4, align 4, !tbaa !3
  store float %1, ptr %5, align 4, !tbaa !3
  store float %2, ptr %6, align 4, !tbaa !3
  %7 = load float, ptr %4, align 4, !tbaa !3
  %8 = load float, ptr %5, align 4, !tbaa !3
  %9 = fcmp olt float %7, %8
  br i1 %9, label %10, label %12

10:                                               ; preds = %3
  %11 = load float, ptr %5, align 4, !tbaa !3
  br label %22

12:                                               ; preds = %3
  %13 = load float, ptr %4, align 4, !tbaa !3
  %14 = load float, ptr %6, align 4, !tbaa !3
  %15 = fcmp ogt float %13, %14
  br i1 %15, label %16, label %18

16:                                               ; preds = %12
  %17 = load float, ptr %6, align 4, !tbaa !3
  br label %20

18:                                               ; preds = %12
  %19 = load float, ptr %4, align 4, !tbaa !3
  br label %20

20:                                               ; preds = %18, %16
  %21 = phi float [ %17, %16 ], [ %19, %18 ]
  br label %22

22:                                               ; preds = %20, %10
  %23 = phi float [ %11, %10 ], [ %21, %20 ]
  ret float %23
}

; Function Attrs: nounwind uwtable
define void @b2DistanceJoint_SetLengthRange(i64 %0, float noundef %1, float noundef %2) #0 {
  %4 = alloca %struct.b2JointId, align 4
  %5 = alloca float, align 4
  %6 = alloca float, align 4
  %7 = alloca ptr, align 8
  %8 = alloca ptr, align 8
  store i64 %0, ptr %4, align 4
  store float %1, ptr %5, align 4, !tbaa !3
  store float %2, ptr %6, align 4, !tbaa !3
  call void @llvm.lifetime.start.p0(i64 8, ptr %7) #8
  %9 = load i64, ptr %4, align 4
  %10 = call ptr @b2GetJointSimCheckType(i64 %9, i32 noundef 0)
  store ptr %10, ptr %7, align 8, !tbaa !7
  call void @llvm.lifetime.start.p0(i64 8, ptr %8) #8
  %11 = load ptr, ptr %7, align 8, !tbaa !7
  %12 = getelementptr inbounds nuw %struct.b2JointSim, ptr %11, i32 0, i32 10
  store ptr %12, ptr %8, align 8, !tbaa !10
  %13 = load float, ptr %5, align 4, !tbaa !3
  %14 = load float, ptr @b2_lengthUnitsPerMeter, align 4, !tbaa !3
  %15 = fmul float 0x3F747AE140000000, %14
  %16 = load float, ptr @b2_lengthUnitsPerMeter, align 4, !tbaa !3
  %17 = fmul float 1.000000e+05, %16
  %18 = call float @b2ClampFloat(float noundef %13, float noundef %15, float noundef %17)
  store float %18, ptr %5, align 4, !tbaa !3
  %19 = load float, ptr %6, align 4, !tbaa !3
  %20 = load float, ptr @b2_lengthUnitsPerMeter, align 4, !tbaa !3
  %21 = fmul float 0x3F747AE140000000, %20
  %22 = load float, ptr @b2_lengthUnitsPerMeter, align 4, !tbaa !3
  %23 = fmul float 1.000000e+05, %22
  %24 = call float @b2ClampFloat(float noundef %19, float noundef %21, float noundef %23)
  store float %24, ptr %6, align 4, !tbaa !3
  %25 = load float, ptr %5, align 4, !tbaa !3
  %26 = load float, ptr %6, align 4, !tbaa !3
  %27 = call float @b2MinFloat(float noundef %25, float noundef %26)
  %28 = load ptr, ptr %8, align 8, !tbaa !10
  %29 = getelementptr inbounds nuw %struct.b2DistanceJoint, ptr %28, i32 0, i32 3
  store float %27, ptr %29, align 4, !tbaa !26
  %30 = load float, ptr %5, align 4, !tbaa !3
  %31 = load float, ptr %6, align 4, !tbaa !3
  %32 = call float @b2MaxFloat(float noundef %30, float noundef %31)
  %33 = load ptr, ptr %8, align 8, !tbaa !10
  %34 = getelementptr inbounds nuw %struct.b2DistanceJoint, ptr %33, i32 0, i32 4
  store float %32, ptr %34, align 4, !tbaa !27
  %35 = load ptr, ptr %8, align 8, !tbaa !10
  %36 = getelementptr inbounds nuw %struct.b2DistanceJoint, ptr %35, i32 0, i32 7
  store float 0.000000e+00, ptr %36, align 4, !tbaa !18
  %37 = load ptr, ptr %8, align 8, !tbaa !10
  %38 = getelementptr inbounds nuw %struct.b2DistanceJoint, ptr %37, i32 0, i32 8
  store float 0.000000e+00, ptr %38, align 4, !tbaa !19
  %39 = load ptr, ptr %8, align 8, !tbaa !10
  %40 = getelementptr inbounds nuw %struct.b2DistanceJoint, ptr %39, i32 0, i32 9
  store float 0.000000e+00, ptr %40, align 4, !tbaa !20
  call void @llvm.lifetime.end.p0(i64 8, ptr %8) #8
  call void @llvm.lifetime.end.p0(i64 8, ptr %7) #8
  ret void
}