; Function Attrs: nounwind uwtable
define void @b2DistanceJoint_SetLengthRange(i64 %0, float noundef %1, float noundef %2) local_unnamed_addr #0 {
  %4 = tail call ptr @b2GetJointSimCheckType(i64 %0, i32 noundef 0) #9
  %5 = load float, ptr @b2_lengthUnitsPerMeter, align 4, !tbaa !3
  %6 = fmul float %5, 0x3F747AE140000000
  %7 = fmul float %5, 1.000000e+05
  %8 = fcmp olt float %1, %6
  %9 = fcmp ogt float %1, %7
  %10 = select i1 %9, float %7, float %1
  %11 = select i1 %8, float %6, float %10
  %12 = fcmp olt float %2, %6
  %13 = fcmp ogt float %2, %7
  %14 = select i1 %13, float %7, float %2
  %15 = select i1 %12, float %6, float %14
  %16 = fcmp olt float %11, %15
  %17 = select i1 %16, float %11, float %15
  %18 = getelementptr inbounds nuw i8, ptr %4, i64 60
  store float %17, ptr %18, align 4, !tbaa !20
  %19 = fcmp ogt float %11, %15
  %20 = select i1 %19, float %11, float %15
  %21 = getelementptr inbounds nuw i8, ptr %4, i64 64
  store float %20, ptr %21, align 4, !tbaa !21
  %22 = getelementptr inbounds nuw i8, ptr %4, i64 76
  store float 0.000000e+00, ptr %22, align 4, !tbaa !13
  %23 = getelementptr inbounds nuw i8, ptr %4, i64 80
  store float 0.000000e+00, ptr %23, align 4, !tbaa !14
  %24 = getelementptr inbounds nuw i8, ptr %4, i64 84
  store float 0.000000e+00, ptr %24, align 4, !tbaa !15
  ret void
}